; Function Attrs: nounwind uwtable
define dso_local ptr @evictPolicyToString() local_unnamed_addr #2 {
entry:
  %0 = load ptr, ptr @maxmemory_policy_enum, align 16
  %cmp.not5 = icmp eq ptr %0, null
  br i1 %cmp.not5, label %for.end, label %for.body.lr.ph

for.body.lr.ph:                                   ; preds = %entry
  %1 = load i32, ptr getelementptr inbounds (%struct.redisServer, ptr @server, i64 0, i32 316), align 8
  %2 = load i32, ptr getelementptr inbounds ([9 x %struct.configEnum], ptr @maxmemory_policy_enum, i64 0, i64 0, i32 1), align 8
  %cmp110 = icmp eq i32 %1, %2
  br i1 %cmp110, label %if.then, label %for.cond

for.cond:                                         ; preds = %for.body.lr.ph, %for.body
  %ce.0611 = phi ptr [ %incdec.ptr, %for.body ], [ @maxmemory_policy_enum, %for.body.lr.ph ]
  %incdec.ptr = getelementptr inbounds i8, ptr %ce.0611, i64 16
  %3 = load ptr, ptr %incdec.ptr, align 8
  %cmp.not = icmp eq ptr %3, null
  br i1 %cmp.not, label %for.end, label %for.body, !llvm.loop !8

for.body:                                         ; preds = %for.cond
  %val = getelementptr inbounds i8, ptr %ce.0611, i64 24
  %4 = load i32, ptr %val, align 8
  %cmp1 = icmp eq i32 %1, %4
  br i1 %cmp1, label %if.then, label %for.cond, !llvm.loop !8

if.then:                                          ; preds = %for.body, %for.body.lr.ph
  %.lcssa = phi ptr [ %0, %for.body.lr.ph ], [ %3, %for.body ]
  ret ptr %.lcssa

for.end:                                          ; preds = %for.cond, %entry
  tail call void (ptr, i32, ptr, ...) @_serverPanic(ptr noundef nonnull @.str.50, i32 noundef 346, ptr noundef nonnull @.str.51) #24
  tail call void @abort() #25
  unreachable
}